; Function Attrs: mustprogress nofree norecurse nosync nounwind willreturn memory(none) uwtable
define i64 @Extra_Truth6SwapAdjacent(i64 noundef %0, i32 noundef %1) local_unnamed_addr #4 {
  %3 = sext i32 %1 to i64
  %4 = getelementptr inbounds [5 x [3 x i64]], ptr @Extra_Truth6SwapAdjacent.PMasks, i64 0, i64 %3
  %5 = load i64, ptr %4, align 8, !tbaa !10
  %6 = and i64 %5, %0
  %7 = getelementptr inbounds nuw i8, ptr %4, i64 8
  %8 = load i64, ptr %7, align 8, !tbaa !10
  %9 = and i64 %8, %0
  %10 = shl nuw i32 1, %1
  %11 = zext i32 %10 to i64
  %12 = shl i64 %9, %11
  %13 = or i64 %12, %6
  %14 = getelementptr inbounds nuw i8, ptr %4, i64 16
  %15 = load i64, ptr %14, align 8, !tbaa !10
  %16 = and i64 %15, %0
  %17 = lshr i64 %16, %11
  %18 = or i64 %13, %17
  ret i64 %18
}